###############################################################################
#
# IAR ELF Linker V8.11.2.13589/W32 for ARM                18/Jun/2018  19:52:59
# Copyright 2007-2017 IAR Systems AB.
#
#    Output file  =  
#        C:\Users\xsk19940910\Desktop\flightController-1\flightController-1\program\iar\FLASH\Exe\Backup
#        of project_K60F12.out
#    Map file     =  
#        C:\Users\xsk19940910\Desktop\flightController-1\flightController-1\program\iar\FLASH\List\Backup
#        of project_K60F12.map
#    Command line =  
#        -f C:\Users\XSK199~1\AppData\Local\Temp\EWB96B.tmp
#        (C:\Users\xsk19940910\Desktop\flightController-1\flightController-1\program\iar\FLASH\Obj\ADC.o
#        C:\Users\xsk19940910\Desktop\flightController-1\flightController-1\program\iar\FLASH\Obj\assert.o
#        C:\Users\xsk19940910\Desktop\flightController-1\flightController-1\program\iar\FLASH\Obj\Beep.o
#        C:\Users\xsk19940910\Desktop\flightController-1\flightController-1\program\iar\FLASH\Obj\control.o
#        C:\Users\xsk19940910\Desktop\flightController-1\flightController-1\program\iar\FLASH\Obj\DEV_LCD.o
#        C:\Users\xsk19940910\Desktop\flightController-1\flightController-1\program\iar\FLASH\Obj\DMA.o
#        C:\Users\xsk19940910\Desktop\flightController-1\flightController-1\program\iar\FLASH\Obj\EKF_AHRS.o
#        C:\Users\xsk19940910\Desktop\flightController-1\flightController-1\program\iar\FLASH\Obj\EVB.o
#        C:\Users\xsk19940910\Desktop\flightController-1\flightController-1\program\iar\FLASH\Obj\FLASH.o
#        C:\Users\xsk19940910\Desktop\flightController-1\flightController-1\program\iar\FLASH\Obj\FLEXBUS.o
#        C:\Users\xsk19940910\Desktop\flightController-1\flightController-1\program\iar\FLASH\Obj\FlightMode.o
#        C:\Users\xsk19940910\Desktop\flightController-1\flightController-1\program\iar\FLASH\Obj\FTM.o
#        C:\Users\xsk19940910\Desktop\flightController-1\flightController-1\program\iar\FLASH\Obj\Ftm1.o
#        C:\Users\xsk19940910\Desktop\flightController-1\flightController-1\program\iar\FLASH\Obj\fuzzyPID.o
#        "C:\Users\xsk19940910\Desktop\flightController-1\flightController-1\program\iar\FLASH\Obj\General
#        Class.o"
#        C:\Users\xsk19940910\Desktop\flightController-1\flightController-1\program\iar\FLASH\Obj\GPIO.o
#        C:\Users\xsk19940910\Desktop\flightController-1\flightController-1\program\iar\FLASH\Obj\GPS.o
#        "C:\Users\xsk19940910\Desktop\flightController-1\flightController-1\program\iar\FLASH\Obj\history
#        AHRS data.o"
#        C:\Users\xsk19940910\Desktop\flightController-1\flightController-1\program\iar\FLASH\Obj\HMC5983.o
#        C:\Users\xsk19940910\Desktop\flightController-1\flightController-1\program\iar\FLASH\Obj\I2C.o
#        C:\Users\xsk19940910\Desktop\flightController-1\flightController-1\program\iar\FLASH\Obj\io.o
#        C:\Users\xsk19940910\Desktop\flightController-1\flightController-1\program\iar\FLASH\Obj\isr.o
#        C:\Users\xsk19940910\Desktop\flightController-1\flightController-1\program\iar\FLASH\Obj\LidarLite.o
#        C:\Users\xsk19940910\Desktop\flightController-1\flightController-1\program\iar\FLASH\Obj\LPTMR.o
#        C:\Users\xsk19940910\Desktop\flightController-1\flightController-1\program\iar\FLASH\Obj\MadgwickAHRS.o
#        C:\Users\xsk19940910\Desktop\flightController-1\flightController-1\program\iar\FLASH\Obj\MCG.o
#        C:\Users\xsk19940910\Desktop\flightController-1\flightController-1\program\iar\FLASH\Obj\memtest.o
#        C:\Users\xsk19940910\Desktop\flightController-1\flightController-1\program\iar\FLASH\Obj\moduleInit.o
#        C:\Users\xsk19940910\Desktop\flightController-1\flightController-1\program\iar\FLASH\Obj\MPU6000.o
#        "C:\Users\xsk19940910\Desktop\flightController-1\flightController-1\program\iar\FLASH\Obj\MS5611
#        Air Pressure.o"
#        C:\Users\xsk19940910\Desktop\flightController-1\flightController-1\program\iar\FLASH\Obj\Navigation.o
#        C:\Users\xsk19940910\Desktop\flightController-1\flightController-1\program\iar\FLASH\Obj\NvidiaTX1.o
#        C:\Users\xsk19940910\Desktop\flightController-1\flightController-1\program\iar\FLASH\Obj\PIT.o
#        C:\Users\xsk19940910\Desktop\flightController-1\flightController-1\program\iar\FLASH\Obj\printf.o
#        C:\Users\xsk19940910\Desktop\flightController-1\flightController-1\program\iar\FLASH\Obj\project.o
#        C:\Users\xsk19940910\Desktop\flightController-1\flightController-1\program\iar\FLASH\Obj\queue.o
#        C:\Users\xsk19940910\Desktop\flightController-1\flightController-1\program\iar\FLASH\Obj\relocate.o
#        C:\Users\xsk19940910\Desktop\flightController-1\flightController-1\program\iar\FLASH\Obj\RemoteHub.o
#        C:\Users\xsk19940910\Desktop\flightController-1\flightController-1\program\iar\FLASH\Obj\RTC.o
#        C:\Users\xsk19940910\Desktop\flightController-1\flightController-1\program\iar\FLASH\Obj\SBus.o
#        C:\Users\xsk19940910\Desktop\flightController-1\flightController-1\program\iar\FLASH\Obj\SPI.o
#        C:\Users\xsk19940910\Desktop\flightController-1\flightController-1\program\iar\FLASH\Obj\startup_K60F12.o
#        C:\Users\xsk19940910\Desktop\flightController-1\flightController-1\program\iar\FLASH\Obj\system_MK60.o
#        C:\Users\xsk19940910\Desktop\flightController-1\flightController-1\program\iar\FLASH\Obj\UART.o
#        C:\Users\xsk19940910\Desktop\flightController-1\flightController-1\program\iar\FLASH\Obj\uif.o
#        "C:\Users\xsk19940910\Desktop\flightController-1\flightController-1\program\iar\FLASH\Obj\Ultrasound(UART).o"
#        C:\Users\xsk19940910\Desktop\flightController-1\flightController-1\program\iar\FLASH\Obj\Ultrasound.o
#        "C:\Users\xsk19940910\Desktop\flightController-1\flightController-1\program\iar\FLASH\Obj\UWB
#        decode.o"
#        C:\Users\xsk19940910\Desktop\flightController-1\flightController-1\program\iar\FLASH\Obj\variables_F450.o
#        C:\Users\xsk19940910\Desktop\flightController-1\flightController-1\program\iar\FLASH\Obj\variables_QAV250.o
#        C:\Users\xsk19940910\Desktop\flightController-1\flightController-1\program\iar\FLASH\Obj\VideoStation.o
#        C:\Users\xsk19940910\Desktop\flightController-1\flightController-1\program\iar\FLASH\Obj\waterGun.o
#        --redirect _Printf=_PrintfFullNoMb --redirect _Scanf=_ScanfFullNoMb -o
#        "C:\Users\xsk19940910\Desktop\flightController-1\flightController-1\program\iar\FLASH\Exe\Backup
#        of project_K60F12.out" --map
#        "C:\Users\xsk19940910\Desktop\flightController-1\flightController-1\program\iar\FLASH\List\Backup
#        of project_K60F12.map" --config
#        C:\Users\xsk19940910\Desktop\flightController-1\flightController-1\program\iar\..\lib\iar_config_files\LPLD_K60FN1M0_FLASH.icf
#        --semihosting --entry __iar_program_start --inline
#        D:\iar\arm\CMSIS\Lib\IAR\iar_cortexM4lf_math.a
#        --merge_duplicate_sections --vfe --text_out utf8)
#
###############################################################################

*******************************************************************************
*** RUNTIME MODEL ATTRIBUTES
***

CppFlavor                     = *
__CPP_Exceptions              = Used
__CPP_Language                = C++14
__Heap_Handler                = Basic
__SystemLibrary               = DLib
__dlib_dynamic_initialization = normal
__dlib_version                = 6


*******************************************************************************
*** HEAP SELECTION
***

The basic heap was selected because no calls to memory allocation
functions were found in the application outside of system library
functions, and there are calls to deallocation functions in the
application.


*******************************************************************************
*** PLACEMENT SUMMARY
***

"A0":  place at 0x00000000 { ro section .intvec };
"A1":  place at 0x00000410 { ro section .noinit };
define block CodeRelocate { section .textrw_init };
"P1":  place in [from 0x00000000 to 0x0007ffff] { ro, block CodeRelocate };
define block CodeRelocateRam { section .textrw };
define block CSTACK with size = 8K, alignment = 8 { };
define block HEAP with size = 8K, alignment = 8 { };
"P2":  place in [from 0x1fff0410 to 0x2000fff0] {
          rw, block CodeRelocateRam, block CSTACK, block HEAP };
initialize manually with packing = copy, complex ranges { section .data };

  Section                Kind        Address     Size  Object
  -------                ----        -------     ----  ------
"A0":                                           0x400
  .intvec                ro code  0x00000000    0x400  startup_K60F12.o [1]
                                - 0x00000400    0x400

"P1", part 1 of 3:                                0x0
  .rodata                const    0x00000400      0x0  zero_init3.o [7]

"P1", part 2 of 3:                                0x0
  CodeRelocate                    0x00000400      0x0  <Block>

"A1":                                            0x14
  .noinit                ro code  0x00000410     0x10  startup_K60F12.o [1]
  .noinit                ro code  0x00000420      0x4  startup_K60F12.o [1]
                                - 0x00000424     0x14

"P1", part 3 of 3:                            0x11978
  .text                  ro code  0x00000424   0x1f48  EKF_AHRS.o [1]
  .text                  ro code  0x0000236c     0x1e  VideoStation.o [1]
  .text                  ro code  0x0000238a      0xe  EKF_AHRS.o [1]
  .text                  ro code  0x00002398    0x4c0  EKF_AHRS.o [1]
  .text                  ro code  0x00002858     0x48  FltToDbl.o [6]
  .text                  ro code  0x000028a0    0x1a2  DblMul.o [6]
  .rodata                const    0x00002a42      0x1  unwind_debug.o [8]
  .text                  ro code  0x00002a44     0x68  DblToFlt.o [6]
  .text                  ro code  0x00002aac     0xee  arm_mat_scale_f32.o [5]
  .text                  ro code  0x00002b9c    0x146  arm_mat_add_f32.o [5]
  .text                  ro code  0x00002ce4     0xf6  arm_mat_trans_f32.o [5]
  .text                  ro code  0x00002ddc     0xf8  arm_mat_mult_f32.o [5]
  .text                  ro code  0x00002ed4    0x540  arm_mat_inverse_f32.o [5]
  .text                  ro code  0x00003414    0x146  arm_mat_sub_f32.o [5]
  .text                  ro code  0x0000355c    0x178  DblAdd.o [6]
  .text                  ro code  0x000036d4    0x2fc  General Class.o [1]
  .text                  ro code  0x000039d0     0xe2  DblSub.o [6]
  .text                  ro code  0x00003ab4     0x86  ABImemcpy.o [7]
  .text                  ro code  0x00003b3c     0x6a  atan2f.o [6]
  .text                  ro code  0x00003ba8     0x5c  asinf.o [6]
  .text                  ro code  0x00003c04     0x1c  VideoStation.o [1]
  .text                  ro code  0x00003c20     0x1c  EKF_AHRS.o [1]
  .text                  ro code  0x00003c3c     0x16  EKF_AHRS.o [1]
  .text                  ro code  0x00003c54     0xa4  xatanf.o [6]
  .data_init                      0x00003cf8   0x19a4  <Block>
    Initializer bytes    const    0x00003cf8   0x19a4  <for .data-1>
  .text                  ro code  0x0000569c    0xc4c  moduleInit.o [1]
  .text                  ro code  0x000062e8    0xc34  EVB.o [1]
  .text                  ro code  0x00006f1c      0xe  FlightMode.o [1]
  .text                  ro code  0x00006f2c    0x958  FlightMode.o [1]
  .text                  ro code  0x00007884    0x3b0  Navigation.o [1]
  .text                  ro code  0x00007c34    0x480  VideoStation.o [1]
  .text                  ro code  0x000080b4     0x34  SBus.o [1]
  .text                  ro code  0x000080e8    0x664  GPS.o [1]
  .text                  ro code  0x0000874c    0x28c  waterGun.o [1]
  .text                  ro code  0x000089d8    0x700  MPU6000.o [1]
  .text                  ro code  0x000090d8     0x24  Beep.o [1]
  .text                  ro code  0x000090fc    0x13c  LPTMR.o [1]
  .text                  ro code  0x00009238    0x174  HMC5983.o [1]
  .text                  ro code  0x000093ac    0x674  MS5611 Air Pressure.o [1]
  .text                  ro code  0x00009a20    0x258  RemoteHub.o [1]
  .text                  ro code  0x00009c78     0x38  Ultrasound.o [1]
  .text                  ro code  0x00009cb0    0x544  Ultrasound(UART).o [1]
  .text                  ro code  0x0000a1f4    0x130  PIT.o [1]
  .text                  ro code  0x0000a324    0xc34  FTM.o [1]
  .text                  ro code  0x0000af58    0x50c  UART.o [1]
  .text                  ro code  0x0000b464    0x394  DMA.o [1]
  .text                  ro code  0x0000b7f8    0x114  GPIO.o [1]
  .text                  ro code  0x0000b90c    0x774  SPI.o [1]
  .text                  ro code  0x0000c080    0x60c  ADC.o [1]
  .text                  ro code  0x0000c68c    0x1a8  I2C.o [1]
  .text                  ro code  0x0000c834     0x14  VideoStation.o [1]
  .text                  ro code  0x0000c848     0x18  EVB.o [1]
  .text                  ro code  0x0000c860      0xa  EVB.o [1]
  .text                  ro code  0x0000c86c     0x22  S32ToDbl.o [6]
  .text                  ro code  0x0000c890    0x246  DblDiv.o [6]
  .text                  ro code  0x0000cad8     0x2e  DblCmpLe.o [6]
  .text                  ro code  0x0000cb06     0x16  Navigation.o [1]
  .text                  ro code  0x0000cb1c     0x48  atanf.o [6]
  .text                  ro code  0x0000cb64     0x68  VideoStation.o [1]
  .text                  ro code  0x0000cbcc     0x66  ABImemset.o [7]
  .text                  ro code  0x0000cc32     0x1c  VideoStation.o [1]
  .text                  ro code  0x0000cc4e      0xe  VideoStation.o [1]
  .text                  ro code  0x0000cc5c      0x8  SBus.o [1]
  .text                  ro code  0x0000cc64     0x60  GPS.o [1]
  .text                  ro code  0x0000ccc4     0x36  strlen.o [7]
  .text                  ro code  0x0000ccfc     0x70  strncpy.o [7]
  .text                  ro code  0x0000cd6c      0xe  math_wrappers64.o [6]
  .text                  ro code  0x0000cd7c     0x3a  DblToS32.o [6]
  .text                  ro code  0x0000cdb8     0x80  arm_cos_f32.o [5]
  .text                  ro code  0x0000ce38     0x98  arm_sin_f32.o [5]
  .text                  ro code  0x0000ced0     0x18  waterGun.o [1]
  .text                  ro code  0x0000cee8     0x28  MPU6000.o [1]
  .text                  ro code  0x0000cf10     0x28  assert.o [1]
  .text                  ro code  0x0000cf38     0x28  strncmp.o [3]
  .text                  ro code  0x0000cf60     0x18  VideoStation.o [1]
  .text                  ro code  0x0000cf78     0x1a  U32ToDbl.o [6]
  .text                  ro code  0x0000cf94     0x28  DblToU32.o [6]
  .text                  ro code  0x0000cfbc    0x3d8  pow32.o [6]
  .text                  ro code  0x0000d394     0x28  Ultrasound.o [1]
  .text                  ro code  0x0000d3bc     0x7c  Ultrasound(UART).o [1]
  .rodata                const    0x0000d438     0x44  system_MK60.o [1]
  .text                  ro code  0x0000d480    0x590  strto64.o [6]
  .text                  ro code  0x0000da10    0x564  printf.o [1]
  .text                  ro code  0x0000df74     0x48  frexpf.o [6]
  .text                  ro code  0x0000dfbc    0x278  iar_Exp32.o [6]
  .text                  ro code  0x0000e234     0x70  frexp.o [6]
  .text                  ro code  0x0000e2a4    0x13a  ldexp.o [6]
  .text                  ro code  0x0000e3de    0x122  iar_Stopfx.o [3]
  .text                  ro code  0x0000e500    0x1c8  iar_Stoflt.o [3]
  .text                  ro code  0x0000e6c8    0x23c  iar_Stoxflt.o [3]
  .text                  ro code  0x0000e904     0xc4  ldexpf.o [6]
  .text                  ro code  0x0000e9c8     0x14  isspace.o [3]
  .text                  ro code  0x0000e9dc     0x14  isalpha.o [3]
  .text                  ro code  0x0000e9f0     0x40  xlocale_c.o [3]
  .text                  ro code  0x0000ea30     0x58  memchr.o [7]
  .text                  ro code  0x0000ea88    0xb80  control.o [1]
  .text                  ro code  0x0000f608    0x400  fuzzyPID.o [1]
  .rodata                const    0x0000fa08    0x804  arm_common_tables.o [5]
  .text                  ro code  0x0001020c    0x734  isr.o [1]
  .text                  ro code  0x00010940    0x6b4  system_MK60.o [1]
  .text                  ro code  0x00010ff4     0xac  relocate.o [1]
  .text                  ro code  0x000110a0    0x1f4  MCG.o [1]
  .text                  ro code  0x00011294    0x16c  project.o [1]
  .rodata                const    0x00011400     0x60  ADC.o [1]
  .rodata                const    0x00011460     0x60  DMA.o [1]
  .rodata                const    0x000114c0     0x60  FTM.o [1]
  .rodata                const    0x00011520     0x60  GPIO.o [1]
  .rodata                const    0x00011580     0x60  I2C.o [1]
  .rodata                const    0x000115e0     0x60  LPTMR.o [1]
  .rodata                const    0x00011640     0x60  PIT.o [1]
  .rodata                const    0x000116a0     0x60  SPI.o [1]
  .rodata                const    0x00011700     0x48  system_MK60.o [1]
  .rodata                const    0x00011748     0x44  system_MK60.o [1]
  .text                  ro code  0x0001178c     0x40  zero_init3.o [7]
  .rodata                const    0x000117cc     0x34  system_MK60.o [1]
  .rodata                const    0x00011800     0x30  assert.o [1]
  .rodata                const    0x00011830     0x30  system_MK60.o [1]
  .rodata                const    0x00011860     0x30  system_MK60.o [1]
  .rodata                const    0x00011890     0x28  system_MK60.o [1]
  .text                  ro code  0x000118b8     0x28  data_init.o [7]
  .rodata                const    0x000118e0     0x24  EKF_AHRS.o [1]
  .rodata                const    0x00011904     0x24  system_MK60.o [1]
  .rodata                const    0x00011928     0x24  system_MK60.o [1]
  .rodata                const    0x0001194c     0x24  system_MK60.o [1]
  .text                  ro code  0x00011970     0x22  fpinit_M.o [6]
  .iar.init_table        const    0x00011994     0x14  - Linker created -
  .rodata                const    0x000119a8     0x20  system_MK60.o [1]
  .rodata                const    0x000119c8     0x20  system_MK60.o [1]
  .rodata                const    0x000119e8     0x20  system_MK60.o [1]
  .rodata                const    0x00011a08     0x20  system_MK60.o [1]
  .rodata                const    0x00011a28     0x20  system_MK60.o [1]
  .text                  ro code  0x00011a48     0x20  cmain_call_ctors.o [7]
  .text                  ro code  0x00011a68     0x18  cppinit.o [3]
  .rodata                const    0x00011a80     0x1c  system_MK60.o [1]
  .rodata                const    0x00011a9c     0x1c  system_MK60.o [1]
  .rodata                const    0x00011ab8     0x1c  system_MK60.o [1]
  .rodata                const    0x00011ad4     0x1c  system_MK60.o [1]
  .rodata                const    0x00011af0     0x1c  system_MK60.o [1]
  .text                  ro code  0x00011b0c     0x1a  cmain.o [7]
  .text                  ro code  0x00011b26      0x4  exit.o [3]
  .text                  ro code  0x00011b2c      0xa  cexit.o [7]
  .text                  ro code  0x00011b38     0x14  exit.o [8]
  .rodata                const    0x00011b4c     0x18  system_MK60.o [1]
  .rodata                const    0x00011b64     0x18  system_MK60.o [1]
  .rodata                const    0x00011b7c     0x18  system_MK60.o [1]
  .rodata                const    0x00011b94     0x18  system_MK60.o [1]
  .rodata                const    0x00011bac     0x18  system_MK60.o [1]
  .rodata                const    0x00011bc4     0x18  system_MK60.o [1]
  .rodata                const    0x00011bdc     0x18  system_MK60.o [1]
  .rodata                const    0x00011bf4     0x18  system_MK60.o [1]
  .rodata                const    0x00011c0c     0x18  system_MK60.o [1]
  .rodata                const    0x00011c24     0x14  system_MK60.o [1]
  .rodata                const    0x00011c38     0x14  system_MK60.o [1]
  .rodata                const    0x00011c4c     0x14  system_MK60.o [1]
  .rodata                const    0x00011c60     0x14  system_MK60.o [1]
  .text                  ro code  0x00011c74     0x14  io.o [1]
  .rodata                const    0x00011c88     0x10  system_MK60.o [1]
  .rodata                const    0x00011c98     0x10  system_MK60.o [1]
  .rodata                const    0x00011ca8     0x10  system_MK60.o [1]
  .rodata                const    0x00011cb8     0x10  system_MK60.o [1]
  SHT$$PREINIT_ARRAY              0x00011cc8      0x0  <Block>
  SHT$$INIT_ARRAY                 0x00011cc8     0x10  <Block>
    .init_array          const    0x00011cc8      0x4  EKF_AHRS.o [1]
    .init_array          const    0x00011ccc      0x4  MPU6000.o [1]
    .init_array          const    0x00011cd0      0x4  MS5611 Air Pressure.o [1]
    .init_array          const    0x00011cd4      0x4  Ultrasound.o [1]
  __iar_tls$$INIT_ARRAY           0x00011cd8      0x0  <Block>
  .rodata                const    0x00011cd8      0xc  system_MK60.o [1]
  .text                  ro code  0x00011ce4      0xc  cstartup_M.o [7]
  .rodata                const    0x00011cf0      0x8  project.o [1]
  .rodata                const    0x00011cf8      0x8  system_MK60.o [1]
  .rodata                const    0x00011d00      0x8  system_MK60.o [1]
  .rodata                const    0x00011d08      0x8  system_MK60.o [1]
  .rodata                const    0x00011d10      0x8  system_MK60.o [1]
  .rodata                const    0x00011d18      0x8  system_MK60.o [1]
  .rodata                const    0x00011d20      0x8  system_MK60.o [1]
  .rodata                const    0x00011d28      0x8  system_MK60.o [1]
  .rodata                const    0x00011d30      0x8  system_MK60.o [1]
  .rodata                const    0x00011d38      0x8  system_MK60.o [1]
  .rodata                const    0x00011d40      0x8  system_MK60.o [1]
  .rodata                const    0x00011d48      0x8  system_MK60.o [1]
  .rodata                const    0x00011d50      0x8  system_MK60.o [1]
  .rodata                const    0x00011d58      0x8  system_MK60.o [1]
  .rodata                const    0x00011d60      0x8  system_MK60.o [1]
  .rodata                const    0x00011d68      0x8  system_MK60.o [1]
  .rodata                const    0x00011d70      0x8  system_MK60.o [1]
  .rodata                const    0x00011d78      0x8  system_MK60.o [1]
  .rodata                const    0x00011d80      0x8  system_MK60.o [1]
  .rodata                const    0x00011d88      0x8  system_MK60.o [1]
  .rodata                const    0x00011d90      0x6  xlocale_c.o [3]
  .rodata                const    0x00011d98      0x4  HMC5983.o [1]
                                - 0x00011d9c  0x11978

"P2", part 1 of 3:                             0x19a4
  .data                           0x1fff0410   0x19a4  <Block>
    .data-1                       0x1fff0410   0x19a3  <Init block>
      .data              inited   0x1fff0410      0x4  control.o [1]
      .data              inited   0x1fff0414      0x4  control.o [1]
      .data              inited   0x1fff0418      0x4  MCG.o [1]
      .data              inited   0x1fff041c      0x4  MCG.o [1]
      .data              inited   0x1fff0420      0x4  MCG.o [1]
      .data              inited   0x1fff0424      0x4  MCG.o [1]
      .data              inited   0x1fff0428     0x10  project.o [1]
      .data              inited   0x1fff0438      0x4  system_MK60.o [1]
      .data              inited   0x1fff043c    0x214  variables_F450.o [1]
      .data              inited   0x1fff0650    0x214  variables_F450.o [1]
      .data              inited   0x1fff0864    0x214  variables_F450.o [1]
      .data              inited   0x1fff0a78    0x214  variables_F450.o [1]
      .data              inited   0x1fff0c8c    0x214  variables_F450.o [1]
      .data              inited   0x1fff0ea0    0x214  variables_F450.o [1]
      .data              inited   0x1fff10b4    0x214  variables_F450.o [1]
      .data              inited   0x1fff12c8    0x214  variables_F450.o [1]
      .data              inited   0x1fff14dc    0x214  variables_F450.o [1]
      .data              inited   0x1fff16f0    0x214  variables_F450.o [1]
      .data              inited   0x1fff1904    0x214  variables_F450.o [1]
      .data              inited   0x1fff1b18    0x214  variables_F450.o [1]
      .data              inited   0x1fff1d2c      0x4  variables_F450.o [1]
      .data              inited   0x1fff1d30     0x38  xlocale_c.o [3]
      .data              inited   0x1fff1d68     0x48  xlocale_c.o [3]
      .data              inited   0x1fff1db0      0x2  project.o [1]
      .data              inited   0x1fff1db2      0x1  MPU6000.o [1]
                                - 0x1fff1db4   0x19a4

"P2", part 2 of 3:                             0x6968
  .bss                            0x1fff1db8   0x6968  <Block>
    .bss                 zero     0x1fff1db8    0x738  GPS.o [1]
    .bss                 zero     0x1fff24f0      0x8  MS5611 Air Pressure.o [1]
    .bss                 zero     0x1fff24f8      0x8  MS5611 Air Pressure.o [1]
    .bss                 zero     0x1fff2500      0x8  MS5611 Air Pressure.o [1]
    .bss                 zero     0x1fff2508     0x50  waterGun.o [1]
    .bss                 zero     0x1fff2558     0x10  ADC.o [1]
    .bss                 zero     0x1fff2568      0x4  assert.o [1]
    .bss                 zero     0x1fff256c      0x4  assert.o [1]
    .bss                 zero     0x1fff2570      0x4  Beep.o [1]
    .bss                 zero     0x1fff2574      0x4  control.o [1]
    .bss                 zero     0x1fff2578     0x80  DMA.o [1]
    .bss                 zero     0x1fff25f8      0x4  EKF_AHRS.o [1]
    .bss                 zero     0x1fff25fc      0x4  EKF_AHRS.o [1]
    .bss                 zero     0x1fff2600     0x54  EKF_AHRS.o [1]
    .bss                 zero     0x1fff2654     0x54  EKF_AHRS.o [1]
    .bss                 zero     0x1fff26a8     0x54  EKF_AHRS.o [1]
    .bss                 zero     0x1fff26fc     0x54  EKF_AHRS.o [1]
    .bss                 zero     0x1fff2750     0x54  EKF_AHRS.o [1]
    .bss                 zero     0x1fff27a4    0x7dc  EKF_AHRS.o [1]
    .bss                 zero     0x1fff2f80    0x7dc  EKF_AHRS.o [1]
    .bss                 zero     0x1fff375c    0x7dc  EKF_AHRS.o [1]
    .bss                 zero     0x1fff3f38      0x4  EKF_AHRS.o [1]
    .bss                 zero     0x1fff3f3c      0x4  EKF_AHRS.o [1]
    .bss                 zero     0x1fff3f40      0x4  EKF_AHRS.o [1]
    .bss                 zero     0x1fff3f44    0x834  EKF_AHRS.o [1]
    .bss                 zero     0x1fff4778    0x834  EKF_AHRS.o [1]
    .bss                 zero     0x1fff4fac    0x7dc  EVB.o [1]
    .bss                 zero     0x1fff5788      0x4  EVB.o [1]
    .bss                 zero     0x1fff578c      0x4  FlightMode.o [1]
    .bss                 zero     0x1fff5790     0x9c  FlightMode.o [1]
    .bss                 zero     0x1fff582c     0x10  FTM.o [1]
    .bss                 zero     0x1fff583c     0x14  GPIO.o [1]
    .bss                 zero     0x1fff5850      0x4  GPS.o [1]
    .bss                 zero     0x1fff5854     0x10  HMC5983.o [1]
    .bss                 zero     0x1fff5864      0x4  HMC5983.o [1]
    .bss                 zero     0x1fff5868      0x8  I2C.o [1]
    .bss                 zero     0x1fff5870      0x4  isr.o [1]
    .bss                 zero     0x1fff5874      0x4  isr.o [1]
    .bss                 zero     0x1fff5878      0x4  isr.o [1]
    .bss                 zero     0x1fff587c      0x4  isr.o [1]
    .bss                 zero     0x1fff5880     0x60  isr.o [1]
    .bss                 zero     0x1fff58e0      0x4  LPTMR.o [1]
    .bss                 zero     0x1fff58e4     0x1c  moduleInit.o [1]
    .bss                 zero     0x1fff5900     0x14  moduleInit.o [1]
    .bss                 zero     0x1fff5914     0x1c  moduleInit.o [1]
    .bss                 zero     0x1fff5930     0x1c  moduleInit.o [1]
    .bss                 zero     0x1fff594c     0x1c  moduleInit.o [1]
    .bss                 zero     0x1fff5968     0x1c  moduleInit.o [1]
    .bss                 zero     0x1fff5984     0x1c  moduleInit.o [1]
    .bss                 zero     0x1fff59a0     0x1c  moduleInit.o [1]
    .bss                 zero     0x1fff59bc     0x2c  moduleInit.o [1]
    .bss                 zero     0x1fff59e8     0x2c  moduleInit.o [1]
    .bss                 zero     0x1fff5a14     0x2c  moduleInit.o [1]
    .bss                 zero     0x1fff5a40     0x2c  moduleInit.o [1]
    .bss                 zero     0x1fff5a6c     0x2c  moduleInit.o [1]
    .bss                 zero     0x1fff5a98     0x2c  moduleInit.o [1]
    .bss                 zero     0x1fff5ac4     0x2c  moduleInit.o [1]
    .bss                 zero     0x1fff5af0     0x2c  moduleInit.o [1]
    .bss                 zero     0x1fff5b1c     0x2c  moduleInit.o [1]
    .bss                 zero     0x1fff5b48     0x2c  moduleInit.o [1]
    .bss                 zero     0x1fff5b74     0x2c  moduleInit.o [1]
    .bss                 zero     0x1fff5ba0     0x10  moduleInit.o [1]
    .bss                 zero     0x1fff5bb0     0x14  moduleInit.o [1]
    .bss                 zero     0x1fff5bc4     0x14  moduleInit.o [1]
    .bss                 zero     0x1fff5bd8     0x14  moduleInit.o [1]
    .bss                 zero     0x1fff5bec     0x14  moduleInit.o [1]
    .bss                 zero     0x1fff5c00     0x34  moduleInit.o [1]
    .bss                 zero     0x1fff5c34     0xd4  moduleInit.o [1]
    .bss                 zero     0x1fff5d08     0x14  moduleInit.o [1]
    .bss                 zero     0x1fff5d1c      0xc  moduleInit.o [1]
    .bss                 zero     0x1fff5d28      0x4  moduleInit.o [1]
    .bss                 zero     0x1fff5d2c      0x4  moduleInit.o [1]
    .bss                 zero     0x1fff5d30     0x54  moduleInit.o [1]
    .bss                 zero     0x1fff5d84     0x60  MPU6000.o [1]
    .bss                 zero     0x1fff5de4     0x60  MPU6000.o [1]
    .bss                 zero     0x1fff5e44     0x38  MS5611 Air Pressure.o [1]
    .bss                 zero     0x1fff5e7c      0x4  MS5611 Air Pressure.o [1]
    .bss                 zero     0x1fff5e80      0x4  MS5611 Air Pressure.o [1]
    .bss                 zero     0x1fff5e84      0x4  MS5611 Air Pressure.o [1]
    .bss                 zero     0x1fff5e88      0x4  MS5611 Air Pressure.o [1]
    .bss                 zero     0x1fff5e8c      0x4  MS5611 Air Pressure.o [1]
    .bss                 zero     0x1fff5e90      0x4  MS5611 Air Pressure.o [1]
    .bss                 zero     0x1fff5e94      0x4  MS5611 Air Pressure.o [1]
    .bss                 zero     0x1fff5e98      0x4  MS5611 Air Pressure.o [1]
    .bss                 zero     0x1fff5e9c      0x4  MS5611 Air Pressure.o [1]
    .bss                 zero     0x1fff5ea0      0x4  MS5611 Air Pressure.o [1]
    .bss                 zero     0x1fff5ea4      0x4  MS5611 Air Pressure.o [1]
    .bss                 zero     0x1fff5ea8      0x4  MS5611 Air Pressure.o [1]
    .bss                 zero     0x1fff5eac      0x4  MS5611 Air Pressure.o [1]
    .bss                 zero     0x1fff5eb0     0x28  MS5611 Air Pressure.o [1]
    .bss                 zero     0x1fff5ed8     0x28  MS5611 Air Pressure.o [1]
    .bss                 zero     0x1fff5f00      0x4  Navigation.o [1]
    .bss                 zero     0x1fff5f04     0xac  Navigation.o [1]
    .bss                 zero     0x1fff5fb0     0x10  PIT.o [1]
    .bss                 zero     0x1fff5fc0     0x10  project.o [1]
    .bss                 zero     0x1fff5fd0      0x4  RemoteHub.o [1]
    .bss                 zero     0x1fff5fd4    0x934  RemoteHub.o [1]
    .bss                 zero     0x1fff6908      0x4  SBus.o [1]
    .bss                 zero     0x1fff690c    0x1b8  SBus.o [1]
    .bss                 zero     0x1fff6ac4     0x18  SPI.o [1]
    .bss                 zero     0x1fff6adc     0x18  SPI.o [1]
    .bss                 zero     0x1fff6af4     0x18  SPI.o [1]
    .bss                 zero     0x1fff6b0c     0x18  UART.o [1]
    .bss                 zero     0x1fff6b24     0x18  UART.o [1]
    .bss                 zero     0x1fff6b3c      0x4  Ultrasound(UART).o [1]
    .bss                 zero     0x1fff6b40    0xde8  Ultrasound(UART).o [1]
    .bss                 zero     0x1fff7928      0x4  Ultrasound.o [1]
    .bss                 zero     0x1fff792c     0x34  Ultrasound.o [1]
    .bss                 zero     0x1fff7960     0x38  Ultrasound.o [1]
    .bss                 zero     0x1fff7998      0x4  variables_F450.o [1]
    .bss                 zero     0x1fff799c      0x4  variables_F450.o [1]
    .bss                 zero     0x1fff79a0     0x28  variables_F450.o [1]
    .bss                 zero     0x1fff79c8     0x28  variables_F450.o [1]
    .bss                 zero     0x1fff79f0      0x4  variables_F450.o [1]
    .bss                 zero     0x1fff79f4      0x4  variables_F450.o [1]
    .bss                 zero     0x1fff79f8    0x180  variables_F450.o [1]
    .bss                 zero     0x1fff7b78      0x4  variables_F450.o [1]
    .bss                 zero     0x1fff7b7c      0x4  variables_F450.o [1]
    .bss                 zero     0x1fff7b80      0x4  variables_F450.o [1]
    .bss                 zero     0x1fff7b84      0x4  variables_F450.o [1]
    .bss                 zero     0x1fff7b88      0x4  variables_F450.o [1]
    .bss                 zero     0x1fff7b8c      0x4  variables_F450.o [1]
    .bss                 zero     0x1fff7b90      0x4  variables_F450.o [1]
    .bss                 zero     0x1fff7b94      0x4  variables_F450.o [1]
    .bss                 zero     0x1fff7b98      0x4  variables_F450.o [1]
    .bss                 zero     0x1fff7b9c      0x4  variables_F450.o [1]
    .bss                 zero     0x1fff7ba0      0x4  variables_F450.o [1]
    .bss                 zero     0x1fff7ba4      0x4  variables_F450.o [1]
    .bss                 zero     0x1fff7ba8      0x4  variables_F450.o [1]
    .bss                 zero     0x1fff7bac      0x4  variables_F450.o [1]
    .bss                 zero     0x1fff7bb0      0x4  variables_F450.o [1]
    .bss                 zero     0x1fff7bb4      0x4  VideoStation.o [1]
    .bss                 zero     0x1fff7bb8    0xb28  VideoStation.o [1]
    .bss                 zero     0x1fff86e0      0x4  waterGun.o [1]
    .bss                 zero     0x1fff86e4      0x2  history AHRS data.o [1]
    .bss                 zero     0x1fff86e6      0x2  history AHRS data.o [1]
    .bss                 zero     0x1fff86e8      0x2  history AHRS data.o [1]
    .bss                 zero     0x1fff86ea      0x2  history AHRS data.o [1]
    .bss                 zero     0x1fff86ec      0x2  history AHRS data.o [1]
    .bss                 zero     0x1fff86ee      0x2  history AHRS data.o [1]
    .bss                 zero     0x1fff86f0      0x2  history AHRS data.o [1]
    .bss                 zero     0x1fff86f2      0x2  history AHRS data.o [1]
    .bss                 zero     0x1fff86f4      0x2  history AHRS data.o [1]
    .bss                 zero     0x1fff86f6      0x2  MS5611 Air Pressure.o [1]
    .bss                 zero     0x1fff86f8      0x2  MS5611 Air Pressure.o [1]
    .bss                 zero     0x1fff86fa      0x2  MS5611 Air Pressure.o [1]
    .bss                 zero     0x1fff86fc      0x2  MS5611 Air Pressure.o [1]
    .bss                 zero     0x1fff86fe      0x2  MS5611 Air Pressure.o [1]
    .bss                 zero     0x1fff8700      0x2  MS5611 Air Pressure.o [1]
    .bss                 zero     0x1fff8702      0x2  MS5611 Air Pressure.o [1]
    .bss                 zero     0x1fff8704      0x2  MS5611 Air Pressure.o [1]
    .bss                 zero     0x1fff8706      0x1  Beep.o [1]
    .bss                 zero     0x1fff8707      0x1  Beep.o [1]
    .bss                 zero     0x1fff8708      0x1  EKF_AHRS.o [1]
    .bss                 zero     0x1fff8709      0x1  EKF_AHRS.o [1]
    .bss                 zero     0x1fff870a      0x1  EKF_AHRS.o [1]
    .bss                 zero     0x1fff870b      0x1  FlightMode.o [1]
    .bss                 zero     0x1fff870c      0x1  GPS.o [1]
    .bss                 zero     0x1fff870d      0x1  isr.o [1]
    .bss                 zero     0x1fff870e      0x1  moduleInit.o [1]
    .bss                 zero     0x1fff870f      0x1  Navigation.o [1]
    .bss                 zero     0x1fff8710      0x1  project.o [1]
    .bss                 zero     0x1fff8711      0x1  project.o [1]
    .bss                 zero     0x1fff8712      0x1  project.o [1]
    .bss                 zero     0x1fff8713      0x1  project.o [1]
    .bss                 zero     0x1fff8714      0x1  project.o [1]
    .bss                 zero     0x1fff8715      0x1  RemoteHub.o [1]
    .bss                 zero     0x1fff8716      0x1  SBus.o [1]
    .bss                 zero     0x1fff8717      0x1  Ultrasound(UART).o [1]
    .bss                 zero     0x1fff8718      0x1  Ultrasound.o [1]
    .bss                 zero     0x1fff8719      0x1  VideoStation.o [1]
                                - 0x1fff871c   0x6968

"P2", part 3 of 3:                             0x2004
  CodeRelocateRam                 0x1fff871c      0x0  <Block>
  CSTACK                          0x1fff8720   0x2000  <Block>
    CSTACK               uninit   0x1fff8720   0x2000  <Block tail>
                                - 0x1fffa720   0x2004


*******************************************************************************
*** INIT TABLE
***

          Address     Size
          -------     ----
Zero (__iar_zero_init3)
    1 destination range, total size 0x6962:
          0x1fff1db8  0x6962

Extra (__iar_cstart_call_ctors)



*******************************************************************************
*** MODULE SUMMARY
***

    Module                 ro code  ro data  rw data
    ------                 -------  -------  -------
C:\Users\xsk19940910\Desktop\flightController-1\flightController-1\program\iar\FLASH\Obj: [1]
    ADC.o                    1 548       96       16
    Beep.o                      36                 6
    DMA.o                      916       96      128
    EKF_AHRS.o               9 288       40   10 679
    EVB.o                    3 158             2 016
    FTM.o                    3 124       96       16
    FlightMode.o             2 406               161
    GPIO.o                     276       96       20
    GPS.o                    1 732             1 853
    General Class.o            764
    HMC5983.o                  372        4       20
    I2C.o                      424       96        8
    LPTMR.o                    316       96        4
    MCG.o                      500       16       16
    MPU6000.o                1 832        5      193
    MS5611 Air Pressure.o    1 652        4      228
    Navigation.o               966               177
    PIT.o                      304       96       16
    RemoteHub.o                600             2 361
    SBus.o                      60               445
    SPI.o                    1 908       96       72
    UART.o                   1 292                48
    Ultrasound(UART).o       1 472             3 565
    Ultrasound.o                96        4      113
    VideoStation.o           1 400             2 861
    assert.o                    40       48        8
    control.o                2 944        8       12
    fuzzyPID.o               1 024
    history AHRS data.o                           18
    io.o                        20
    isr.o                    1 844               113
    moduleInit.o             3 148             1 185
    printf.o                 1 380
    project.o                  364       26       39
    relocate.o                 172
    startup_K60F12.o         1 044
    system_MK60.o            1 716    1 332        4
    variables_F450.o                  6 388    6 928
    waterGun.o                 676                84
    ------------------------------------------------
    Total:                  50 814    8 643   33 413

command line: [2]
    ------------------------------------------------
    Total:

dl7M_tlf.a: [3]
    cppinit.o                   24
    exit.o                       4
    iar_Stoflt.o               456
    iar_Stopfx.o               290
    iar_Stoxflt.o              572
    isalpha.o                   20
    isspace.o                   20
    strncmp.o                   40
    xlocale_c.o                 64      134      128
    ------------------------------------------------
    Total:                   1 490      134      128

dlpp7M_tl_fc.a: [4]
    ------------------------------------------------
    Total:

iar_cortexM4lf_math.a: [5]
    arm_common_tables.o               2 052
    arm_cos_f32.o              128
    arm_mat_add_f32.o          326
    arm_mat_inverse_f32.o    1 344
    arm_mat_mult_f32.o         248
    arm_mat_scale_f32.o        238
    arm_mat_sub_f32.o          326
    arm_mat_trans_f32.o        246
    arm_sin_f32.o              152
    ------------------------------------------------
    Total:                   3 008    2 052

m7M_tls.a: [6]
    DblAdd.o                   376
    DblCmpLe.o                  46
    DblDiv.o                   582
    DblMul.o                   418
    DblSub.o                   226
    DblToFlt.o                 104
    DblToS32.o                  58
    DblToU32.o                  40
    FltToDbl.o                  72
    S32ToDbl.o                  34
    U32ToDbl.o                  26
    asinf.o                     92
    atan2f.o                   106
    atanf.o                     72
    fpinit_M.o                  34
    frexp.o                    112
    frexpf.o                    72
    iar_Exp32.o                632
    ldexp.o                    314
    ldexpf.o                   196
    math_wrappers64.o           14
    pow32.o                    984
    strto64.o                1 424
    xatanf.o                   164
    ------------------------------------------------
    Total:                   6 198

rt7M_tl.a: [7]
    ABImemcpy.o                134
    ABImemset.o                102
    cexit.o                     10
    cmain.o                     26
    cmain_call_ctors.o          32
    cstartup_M.o                12
    data_init.o                 40
    memchr.o                    88
    strlen.o                    54
    strncpy.o                  112
    zero_init3.o                64
    ------------------------------------------------
    Total:                     674

shb_l.a: [8]
    exit.o                      20
    unwind_debug.o                        1
    ------------------------------------------------
    Total:                      20        1

    Gaps                        41        4
    Linker created                       21    8 192
----------------------------------------------------
    Grand Total:            62 245   10 855   41 733


*******************************************************************************
*** ENTRY LIST
***

Entry                      Address    Size  Type      Object
-----                      -------    ----  ----      ------
.bss$$Base              0x1fff1db8           --   Gb  - Linker created -
.bss$$Limit             0x1fff871c           --   Gb  - Linker created -
.data$$Base             0x1fff0410           --   Gb  - Linker created -
.data$$Limit            0x1fff1db4           --   Gb  - Linker created -
.data_init$$Base        0x00003cf8           --   Gb  - Linker created -
.data_init$$Limit       0x0000569c           --   Gb  - Linker created -
.iar.init_table$$Base   0x00011994           --   Gb  - Linker created -
.iar.init_table$$Limit  0x000119a8           --   Gb  - Linker created -
?main                   0x00011b0d          Code  Gb  cmain.o [7]
ADC1_Init()             0x000060df    0x40  Code  Gb  moduleInit.o [1]
ADC1_init_struct        0x1fff5d08    0x14  Data  Gb  moduleInit.o [1]
ADC_Chn_Enable          0x0000c287   0x31a  Code  Gb  ADC.o [1]
ADC_Get                 0x0000c25f    0x28  Code  Gb  ADC.o [1]
ADC_ISR                 0x1fff2558    0x10  Data  Gb  ADC.o [1]
ADC_Init                0x0000c081   0x1de  Code  Gb  ADC.o [1]
AHRS                    0x1fff79a0    0x28  Data  Gb  variables_F450.o [1]
AHRS0                   0x1fff79c8    0x28  Data  Gb  variables_F450.o [1]
ASSERT_FAILED_STR       0x00011800    0x30  Data  Lc  assert.o [1]
A_array                 0x1fff5fc0    0x10  Data  Gb  project.o [1]
Aux                     0x1fff5ea0     0x4  Data  Lc  MS5611 Air Pressure.o [1]
Baro_hight              0x1fff2500     0x8  Data  Gb  MS5611 Air Pressure.o [1]
BarodistanceFilter      0x1fff5e44    0x38  Data  Gb  MS5611 Air Pressure.o [1]
Beep                    0x1fff2570     0x4  Data  Gb  Beep.o [1]
Beep_Init()             0x000090d9    0x24  Code  Gb  Beep.o [1]
Beep_Init()::Beep_0     0x1fff8707     0x1  Data  Lc  Beep.o [1]
Beep_Init()::static guard for Beep_0
                        0x1fff8706     0x1  Data  Lc  Beep.o [1]
C1                      0x1fff86f8     0x2  Data  Lc  MS5611 Air Pressure.o [1]
C2                      0x1fff86fa     0x2  Data  Lc  MS5611 Air Pressure.o [1]
C3                      0x1fff86fc     0x2  Data  Lc  MS5611 Air Pressure.o [1]
C4                      0x1fff86fe     0x2  Data  Lc  MS5611 Air Pressure.o [1]
C5                      0x1fff8700     0x2  Data  Lc  MS5611 Air Pressure.o [1]
C6                      0x1fff8702     0x2  Data  Lc  MS5611 Air Pressure.o [1]
CEKF_AHRS::CEKF_AHRS()  0x00002399   0x4c0  Code  Gb  EKF_AHRS.o [1]
CEKF_AHRS::EKF()        0x00000529  0x1de2  Code  Gb  EKF_AHRS.o [1]
CFlightMode::CFlightMode()
                        0x00006f1d     0xe  Code  Gb  FlightMode.o [1]
CFlightMode::CMission::update()
                        0x00007555   0x2a8  Code  Gb  FlightMode.o [1]
CFlightMode::CTakeOff::update()
                        0x00007175   0x3c2  Code  Gb  FlightMode.o [1]
CFlightMode::update()   0x00006f55   0x220  Code  Gb  FlightMode.o [1]
CGPS::CGPS()            0x0000cc65    0x60  Code  Gb  GPS.o [1]
CGPS::GetComma(int, char *)
                        0x000081bf    0x32  Code  Gb  GPS.o [1]
CGPS::get_double_number(char *)
                        0x00008335    0x2e  Code  Gb  GPS.o [1]
CGPS::get_locate(double)
                        0x00008363    0x5a  Code  Gb  GPS.o [1]
CGPS::unpack(int, int)  0x000083bd   0x346  Code  Gb  GPS.o [1]
CGPS::updateUart()      0x000081f1   0x144  Code  Gb  GPS.o [1]
CJumpFilter::CJumpFilter()
                        0x0000cf61    0x18  Code  Gb  VideoStation.o [1]
CJumpFilter::checkIsNewData(int)
                        0x0000386f    0x14  Code  Gb  General Class.o [1]
CJumpFilter::newData1(float, int)
                        0x000036d5    0xb6  Code  Gb  General Class.o [1]
CJumpFilter::newData3(float, int)
                        0x0000378b    0xd0  Code  Gb  General Class.o [1]
CJumpFilter::setParameter(float, int)
                        0x00003867     0x8  Code  Gb  General Class.o [1]
CJumpFilter::setParameter(float, int, float)
                        0x0000385b     0xc  Code  Gb  General Class.o [1]
CNavigation::CNavigation()
                        0x0000cb07    0x16  Code  Gb  Navigation.o [1]
CNavigation::update()   0x000078c9   0x308  Code  Gb  Navigation.o [1]
CRC_1                   0x1fff8704     0x2  Data  Lc  MS5611 Air Pressure.o [1]
CRemoteHub::updateUart()
                        0x00009a47   0x21a  Code  Gb  RemoteHub.o [1]
CSBus::CSBus()          0x0000cc5d     0x8  Code  Gb  SBus.o [1]
CSTACK$$Base            0x1fff8720           --   Gb  - Linker created -
CSTACK$$Limit           0x1fffa720           --   Gb  - Linker created -
CUltrasoundUART::CUltrasoundUART()
                        0x0000d3bd    0x7c  Code  Gb  Ultrasound(UART).o [1]
CUltrasoundUART::update()
                        0x00009d99   0x430  Code  Gb  Ultrasound(UART).o [1]
CVideoStation::CVideoStation()
                        0x0000cb65    0x68  Code  Gb  VideoStation.o [1]
CVideoStation::TX_::add(char)
                        0x0000cc4f     0xe  Code  Gb  VideoStation.o [1]
CVideoStation::TX_::clear()
                        0x0000cc33    0x1c  Code  Gb  VideoStation.o [1]
CVideoStation::TX_::startDMA_Transmit()
                        0x00008035    0x3a  Code  Gb  VideoStation.o [1]
CVideoStation::sendPackage()
                        0x00007f91    0xa0  Code  Gb  VideoStation.o [1]
CVideoStation::updateUart()
                        0x00007cd1   0x2be  Code  Gb  VideoStation.o [1]
CWaterGun::startSpraying()
                        0x00008987    0x1c  Code  Gb  waterGun.o [1]
CWaterGun::stopSpraying()
                        0x000089a3    0x1c  Code  Gb  waterGun.o [1]
CWaterGun::update()     0x000087c9   0x1be  Code  Gb  waterGun.o [1]
CalcMembership(int, int *, int *)
                        0x0000f745    0x96  Code  Gb  fuzzyPID.o [1]
CodeRelocate$$Base      0x00000400           --   Gb  - Linker created -
CodeRelocate$$Limit     0x00000400           --   Gb  - Linker created -
CodeRelocateRam$$Base   0x1fff871c           --   Gb  - Linker created -
CodeRelocateRam$$Limit  0x1fff871c           --   Gb  - Linker created -
Compass                 0x1fff5854    0x10  Data  Gb  HMC5983.o [1]
ControlOutput_ZChannel  0x1fff79f4     0x4  Data  Gb  variables_F450.o [1]
Coordinate::Coordinate()
                        0x0000236d    0x1e  Code  Gb  VideoStation.o [1]
CoordinateElement::CoordinateElement()
                        0x00003c05    0x1c  Code  Gb  VideoStation.o [1]
CoordinateElement::calculateD(int)
                        0x000038ad    0x96  Code  Gb  General Class.o [1]
CoordinateElement::operator +=(float)
                        0x00003889     0xe  Code  Gb  General Class.o [1]
CoordinateElement::operator -=(float)
                        0x00003897     0xe  Code  Gb  General Class.o [1]
CoordinateElement::operator =(float)
                        0x00003883     0x6  Code  Gb  General Class.o [1]
CoordinateElement::operator float()
                        0x000038a5     0x6  Code  Gb  General Class.o [1]
D1_Pres                 0x1fff5e7c     0x4  Data  Lc  MS5611 Air Pressure.o [1]
D1_Pres_f               0x1fff5e88     0x4  Data  Lc  MS5611 Air Pressure.o [1]
D2_Temp                 0x1fff5e80     0x4  Data  Lc  MS5611 Air Pressure.o [1]
D2_Temp_f               0x1fff5e84     0x4  Data  Lc  MS5611 Air Pressure.o [1]
DMA0_                   0x1fff59bc    0x2c  Data  Gb  moduleInit.o [1]
DMA10_                  0x1fff5b74    0x2c  Data  Gb  moduleInit.o [1]
DMA1_                   0x1fff59e8    0x2c  Data  Gb  moduleInit.o [1]
DMA2_                   0x1fff5a14    0x2c  Data  Gb  moduleInit.o [1]
DMA3_                   0x1fff5a40    0x2c  Data  Gb  moduleInit.o [1]
DMA4_                   0x1fff5a6c    0x2c  Data  Gb  moduleInit.o [1]
DMA5_                   0x1fff5a98    0x2c  Data  Gb  moduleInit.o [1]
DMA6_                   0x1fff5ac4    0x2c  Data  Gb  moduleInit.o [1]
DMA7_                   0x1fff5af0    0x2c  Data  Gb  moduleInit.o [1]
DMA8_                   0x1fff5b1c    0x2c  Data  Gb  moduleInit.o [1]
DMA9_                   0x1fff5b48    0x2c  Data  Gb  moduleInit.o [1]
DMA_ISR                 0x1fff2578    0x80  Data  Gb  DMA.o [1]
DMA_Init                0x0000b465   0x372  Code  Gb  DMA.o [1]
DMA_init()              0x00005b4d   0x4f4  Code  Gb  moduleInit.o [1]
DMA_isOccupying         0x0000c835    0x14  Code  Gb  VideoStation.o [1]
DefaultISR              0x00010ad5    0x16  Code  Gb  system_MK60.o [1]
Dtentox                 0x0000d635   0x196  Code  Lc  strto64.o [6]
EKF_AHRS                0x1fff25f8     0x4  Data  Gb  EKF_AHRS.o [1]
EKF_AHRS1               0x1fff25fc     0x4  Data  Gb  EKF_AHRS.o [1]
EKF_AHRS_init()         0x0000047b    0x70  Code  Gb  EKF_AHRS.o [1]
EKF_AHRS_init()::EKF_AHRS_in
                        0x1fff3f44   0x834  Data  Lc  EKF_AHRS.o [1]
EKF_AHRS_init()::EKF_AHRS_in1
                        0x1fff4778   0x834  Data  Lc  EKF_AHRS.o [1]
EKF_AHRS_init()::static guard for EKF_AHRS_in
                        0x1fff8708     0x1  Data  Lc  EKF_AHRS.o [1]
EKF_AHRS_init()::static guard for EKF_AHRS_in1
                        0x1fff8709     0x1  Data  Lc  EKF_AHRS.o [1]
EVB                     0x1fff4fac   0x7dc  Data  Gb  EVB.o [1]
EVBInitUser()           0x0000569d    0x80  Code  Gb  moduleInit.o [1]
EVBInitUserStruct       0x1fff5c34    0xd4  Data  Gb  moduleInit.o [1]
EVB_::TX_::add(char)    0x0000c861     0xa  Code  Gb  EVB.o [1]
EVB_::TX_::clear()      0x0000c849    0x18  Code  Gb  EVB.o [1]
EVB_::TX_::startDMA_Transmit()
                        0x00006895    0x3c  Code  Gb  EVB.o [1]
EVB_::send()            0x00006425   0x468  Code  Gb  EVB.o [1]
EVB_DMA_Receive()       0x000068d1    0xe2  Code  Gb  EVB.o [1]
EVB_DMA_Receive()::address00
                        0x1fff5788     0x4  Data  Lc  EVB.o [1]
EVB_Init(__EVB_InitTypeDef)
                        0x000062e9   0x120  Code  Gb  EVB.o [1]
EVB_Process()           0x00006d39    0x28  Code  Gb  EVB.o [1]
EVB_RX_Check(int)       0x000069b3    0x3c  Code  Gb  EVB.o [1]
EVB_ResetTime()         0x00006d65    0x52  Code  Gb  EVB.o [1]
EVB_TimerUpdate()       0x00006409    0x16  Code  Gb  EVB.o [1]
EVB_Unpack(int)         0x000069f9   0x33a  Code  Gb  EVB.o [1]
EVB_atoi(char *, int)   0x00006de1    0xf2  Code  Gb  EVB.o [1]
FTM0_IRQHandler         0x0000aec5     0xa  Code  Gb  FTM.o [1]
FTM1_IRQHandler         0x0000aed5     0xa  Code  Gb  FTM.o [1]
FTM2_IRQHandler         0x0000aedf     0xa  Code  Gb  FTM.o [1]
FTM3_IRQHandler         0x0000aeed     0xa  Code  Gb  FTM.o [1]
FTM_ISR                 0x1fff582c    0x10  Data  Gb  FTM.o [1]
FTM_Init                0x0000a325   0x140  Code  Gb  FTM.o [1]
FTM_PWM_ChangeDuty      0x0000a4e1    0x50  Code  Gb  FTM.o [1]
FTM_PWM_Enable          0x0000a465    0x7c  Code  Gb  FTM.o [1]
F_file                  0x1fff256c     0x4  Data  Gb  assert.o [1]
F_line                  0x1fff2568     0x4  Data  Gb  assert.o [1]
Fusion::Fusion()        0x00003c3d    0x16  Code  Gb  EKF_AHRS.o [1]
GPIO_ISR                0x1fff583c    0x14  Data  Gb  GPIO.o [1]
GPIO_Init               0x0000b7f9    0xe0  Code  Gb  GPIO.o [1]
GPIO_Output_b           0x0000ced1    0x18  Code  Gb  waterGun.o [1]
GPIO_init()             0x0000611f    0x86  Code  Gb  moduleInit.o [1]
GPIO_init_struct        0x1fff5bc4    0x14  Data  Gb  moduleInit.o [1]
GPIO_init_struct1       0x1fff5bd8    0x14  Data  Gb  moduleInit.o [1]
GPIO_init_struct2       0x1fff5bec    0x14  Data  Gb  moduleInit.o [1]
GPS                     0x1fff5850     0x4  Data  Gb  GPS.o [1]
GPS_Init()              0x000080e9    0xd6  Code  Gb  GPS.o [1]
GPS_Init()::GPS_0       0x1fff1db8   0x738  Data  Lc  GPS.o [1]
GPS_Init()::static guard for GPS_0
                        0x1fff870c     0x1  Data  Lc  GPS.o [1]
H_accel_x               0x1fff86e4     0x2  Data  Gb  history AHRS data.o [1]
H_accel_y               0x1fff86e6     0x2  Data  Gb  history AHRS data.o [1]
H_accel_z               0x1fff86e8     0x2  Data  Gb  history AHRS data.o [1]
H_gyro_x                0x1fff86ea     0x2  Data  Gb  history AHRS data.o [1]
H_gyro_y                0x1fff86ec     0x2  Data  Gb  history AHRS data.o [1]
H_gyro_z                0x1fff86ee     0x2  Data  Gb  history AHRS data.o [1]
H_hmc_x                 0x1fff86f0     0x2  Data  Gb  history AHRS data.o [1]
H_hmc_y                 0x1fff86f2     0x2  Data  Gb  history AHRS data.o [1]
H_hmc_z                 0x1fff86f4     0x2  Data  Gb  history AHRS data.o [1]
HardFault_Handler       0x00010ac9     0xc  Code  Gb  system_MK60.o [1]
I2C0_                   0x1fff5ba0    0x10  Data  Gb  moduleInit.o [1]
I2C_ISR                 0x1fff5868     0x8  Data  Gb  I2C.o [1]
I2C_Init                0x0000c68d   0x16a  Code  Gb  I2C.o [1]
I2C_inti()              0x000061a5    0x2a  Code  Gb  moduleInit.o [1]
IMU_acc_E               0x1fff2600    0x54  Data  Gb  EKF_AHRS.o [1]
IMU_position            0x1fff26a8    0x54  Data  Gb  EKF_AHRS.o [1]
IMU_vel                 0x1fff2654    0x54  Data  Gb  EKF_AHRS.o [1]
Init()                  0x0000571d   0x114  Code  Gb  moduleInit.o [1]
Init()::command_def     0x1fff5d30    0x54  Data  Lc  moduleInit.o [1]
Init()::static guard for command_def
                        0x1fff870e     0x1  Data  Lc  moduleInit.o [1]
InitMPU6000()           0x00009065    0x74  Code  Gb  MPU6000.o [1]
LPTMR_DelayMs           0x000091d7    0x40  Code  Gb  LPTMR.o [1]
LPTMR_ISR               0x1fff58e0     0x4  Data  Gb  LPTMR.o [1]
LPTMR_Init              0x000090fd    0xda  Code  Gb  LPTMR.o [1]
LPTMR_init()            0x00005b2d    0x20  Code  Gb  moduleInit.o [1]
LPTMR_init_struct       0x1fff5d1c     0xc  Data  Gb  moduleInit.o [1]
MPU6000                 0x1fff5d84    0x60  Data  Gb  MPU6000.o [1]
MPU6000_CS              0x1fff1db2     0x1  Data  Gb  MPU6000.o [1]
MPU6000_DAQ()           0x00008c8d   0x34a  Code  Gb  MPU6000.o [1]
MPU6000_Raw             0x1fff5de4    0x60  Data  Gb  MPU6000.o [1]
MPU6000_ReadBuf(unsigned char, unsigned char *, unsigned char)
                        0x00008a1d    0x6a  Code  Gb  MPU6000.o [1]
MPU6000_Type::MPU6000_Type()
                        0x0000cee9    0x28  Code  Gb  MPU6000.o [1]
MPU6000_Type::error()   0x00008c7f     0xe  Code  Gb  MPU6000.o [1]
MPU6000_Type::isInRange(float, float, float)
                        0x00008bc9    0x88  Code  Gb  MPU6000.o [1]
MPU6000_Type::isNormal()
                        0x00008c51    0x2e  Code  Gb  MPU6000.o [1]
MPU6000_Type::operator -(MPU6000_Type&)
                        0x00008b3b    0x8e  Code  Gb  MPU6000.o [1]
MPU6000_Type::operator =(MPU6000_Type&)
                        0x00008a87    0x2c  Code  Gb  MPU6000.o [1]
MPU6000_Type::operator ==(MPU6000_Type&)
                        0x00008ab3    0x88  Code  Gb  MPU6000.o [1]
MPU6000_WriteByte(unsigned char, unsigned char)
                        0x000089ed    0x30  Code  Gb  MPU6000.o [1]
MS5611_PROM_READ()      0x00009427    0x64  Code  Gb  MS5611 Air Pressure.o [1]
MS5611_RESET()          0x0000941b     0xc  Code  Gb  MS5611 Air Pressure.o [1]
MS5611_ReadWriteByte(unsigned char, unsigned char)
                        0x000093d1    0x1c  Code  Gb  MS5611 Air Pressure.o [1]
MS5611_ReadWrite_16bits(unsigned char)
                        0x000093ed    0x2e  Code  Gb  MS5611 Air Pressure.o [1]
MS5611_SPI_read_ADC()   0x0000948b    0x38  Code  Gb  MS5611 Air Pressure.o [1]
MS5611_getPressure(unsigned char)
                        0x000094c5   0x336  Code  Gb  MS5611 Air Pressure.o [1]
MS5611_getTemperature(unsigned char)
                        0x00009815    0xe8  Code  Gb  MS5611 Air Pressure.o [1]
MS5611_init()           0x000093b9    0x18  Code  Gb  MS5611 Air Pressure.o [1]
Navigation              0x1fff5f00     0x4  Data  Gb  Navigation.o [1]
Navigation_Init()       0x00007885    0x44  Code  Gb  Navigation.o [1]
Navigation_Init()::Navigation_0
                        0x1fff5f04    0xac  Data  Lc  Navigation.o [1]
Navigation_Init()::static guard for Navigation_0
                        0x1fff870f     0x1  Data  Lc  Navigation.o [1]
OFF                     0x1fff24f0     0x8  Data  Lc  MS5611 Air Pressure.o [1]
OFF2                    0x1fff5ea4     0x4  Data  Lc  MS5611 Air Pressure.o [1]
PID_controler(PID_Controller *)
                        0x0000f939    0xb6  Code  Gb  fuzzyPID.o [1]
PIT0_IRQHandler         0x0000a2e9    0x16  Code  Gb  PIT.o [1]
PIT_EnableIrq           0x0000a2c3    0x26  Code  Gb  PIT.o [1]
PIT_ISR                 0x1fff5fb0    0x10  Data  Gb  PIT.o [1]
PIT_Init                0x0000a211    0xb2  Code  Gb  PIT.o [1]
PIT_init(int)           0x000058f5    0x34  Code  Gb  moduleInit.o [1]
PLL_Setup               0x000110a1   0x1f4  Code  Gb  MCG.o [1]
PWM_init()              0x00005831    0xc4  Code  Gb  moduleInit.o [1]
Pressure                0x1fff5e94     0x4  Data  Lc  MS5611 Air Pressure.o [1]
Pressure_f              0x1fff5e98     0x4  Data  Lc  MS5611 Air Pressure.o [1]
Region$$Table$$Base     0x00011994           --   Gb  - Linker created -
Region$$Table$$Limit    0x000119a8           --   Gb  - Linker created -
RemoteHub               0x1fff5fd0     0x4  Data  Gb  RemoteHub.o [1]
RemoteHub_Init()        0x00009a21    0x26  Code  Gb  RemoteHub.o [1]
RemoteHub_Init()::RemoteHub_0
                        0x1fff5fd4   0x934  Data  Lc  RemoteHub.o [1]
RemoteHub_Init()::static guard for RemoteHub_0
                        0x1fff8715     0x1  Data  Lc  RemoteHub.o [1]
SBus                    0x1fff6908     0x4  Data  Gb  SBus.o [1]
SBus_Init()             0x000080b5    0x26  Code  Gb  SBus.o [1]
SBus_Init()::SBus_static
                        0x1fff690c   0x1b8  Data  Lc  SBus.o [1]
SBus_Init()::static guard for SBus_static
                        0x1fff8716     0x1  Data  Lc  SBus.o [1]
SCI_TXD                 0x0000b3b9    0x10  Code  Gb  UART.o [1]
SENS                    0x1fff24f8     0x8  Data  Lc  MS5611 Air Pressure.o [1]
SENS2                   0x1fff5ea8     0x4  Data  Lc  MS5611 Air Pressure.o [1]
SHT$$INIT_ARRAY$$Base   0x00011cc8           --   Gb  - Linker created -
SHT$$INIT_ARRAY$$Limit  0x00011cd8           --   Gb  - Linker created -
SHT$$PREINIT_ARRAY$$Base
                        0x00011cc8           --   Gb  - Linker created -
SHT$$PREINIT_ARRAY$$Limit
                        0x00011cc8           --   Gb  - Linker created -
SPI0_ISR                0x1fff6ac4    0x18  Data  Gb  SPI.o [1]
SPI1_ISR                0x1fff6adc    0x18  Data  Gb  SPI.o [1]
SPI1_Init()             0x00006041    0x9e  Code  Gb  moduleInit.o [1]
SPI1_init_struct        0x1fff5c00    0x34  Data  Gb  moduleInit.o [1]
SPI2_ISR                0x1fff6af4    0x18  Data  Gb  SPI.o [1]
SPI_Init                0x0000b90d   0x67a  Code  Gb  SPI.o [1]
SPI_Master_WriteRead    0x0000bf87    0x3c  Code  Gb  SPI.o [1]
SystemCoreClock         0x1fff0438     0x4  Data  Gb  system_MK60.o [1]
SystemCoreClockUpdate   0x00010a99    0x30  Code  Gb  system_MK60.o [1]
SystemInit              0x00010941   0x158  Code  Gb  system_MK60.o [1]
TEMP2                   0x1fff5e9c     0x4  Data  Lc  MS5611 Air Pressure.o [1]
Temperature             0x1fff5e90     0x4  Data  Lc  MS5611 Air Pressure.o [1]
UART_Init               0x0000af59   0x456  Code  Gb  UART.o [1]
UART_PutChar            0x0000b3af     0xa  Code  Gb  UART.o [1]
UART_R_ISR              0x1fff6b0c    0x18  Data  Gb  UART.o [1]
UART_T_ISR              0x1fff6b24    0x18  Data  Gb  UART.o [1]
UART_init()             0x00005929   0x204  Code  Gb  moduleInit.o [1]
Ultrasound              0x1fff7928     0x4  Data  Gb  Ultrasound.o [1]
UltrasoundUART          0x1fff6b3c     0x4  Data  Gb  Ultrasound(UART).o [1]
UltrasoundUART_Init()   0x00009cb1    0xde  Code  Gb  Ultrasound(UART).o [1]
UltrasoundUART_Init()::UltrasoundUART_static
                        0x1fff6b40   0xde8  Data  Lc  Ultrasound(UART).o [1]
UltrasoundUART_Init()::static guard for UltrasoundUART_static
                        0x1fff8717     0x1  Data  Lc  Ultrasound(UART).o [1]
Ultrasound_Init()       0x00009c83    0x1e  Code  Gb  Ultrasound.o [1]
Ultrasound_Init()::Ultrasound0
                        0x1fff792c    0x34  Data  Lc  Ultrasound.o [1]
Ultrasound_Init()::static guard for Ultrasound0
                        0x1fff8718     0x1  Data  Lc  Ultrasound.o [1]
Ultrasound__::Ultrasound__()
                        0x0000d395    0x28  Code  Gb  Ultrasound.o [1]
Ultrasound__::filter    0x1fff7960    0x38  Data  Gb  Ultrasound.o [1]
VideoStation_Init()     0x00007c35    0x98  Code  Gb  VideoStation.o [1]
VideoStation_Init()::static guard for videoStation_0
                        0x1fff8719     0x1  Data  Lc  VideoStation.o [1]
VideoStation_Init()::videoStation_0
                        0x1fff7bb8   0xb28  Data  Lc  VideoStation.o [1]
WaterGun_Init()         0x0000874d    0x7a  Code  Gb  waterGun.o [1]
WaterGun_Init()::waterGun_0
                        0x1fff2508    0x50  Data  Lc  waterGun.o [1]
Xi_array                0x1fff0428    0x10  Data  Gb  project.o [1]
[local to ADC_c]::ADC_Cal(ADC_Type *)
                        0x0000c5a1    0xa2  Code  Lc  ADC.o [1]
[local to EKF_AHRS_cpp]::arm_sqrt_f32(float, float *)
                        0x00000459    0x22  Code  Lc  EKF_AHRS.o [1]
[local to FTM_c]::FTM_DEC_Init(FTM_InitTypeDef)
                        0x0000aebd     0x8  Code  Lc  FTM.o [1]
[local to FTM_c]::FTM_IC_Init(FTM_InitTypeDef)
                        0x0000a66f    0xa0  Code  Lc  FTM.o [1]
[local to FTM_c]::FTM_PWM_Init(FTM_InitTypeDef)
                        0x0000a531   0x13e  Code  Lc  FTM.o [1]
[local to FTM_c]::FTM_PinInit(FTM_Type *, FtmChnEnum, PortPinsEnum)
                        0x0000a731   0x6f6  Code  Lc  FTM.o [1]
[local to FTM_c]::FTM_QD_Init(FTM_InitTypeDef)
                        0x0000ae81    0x3c  Code  Lc  FTM.o [1]
[local to PIT_c]::__NVIC_EnableIRQ(IRQn)
                        0x0000a1f5    0x1c  Code  Lc  PIT.o [1]
[local to isr_c]::arm_sqrt_f32(float, float *)
                        0x0001020d    0x22  Code  Lc  isr.o [1]
[local to printf_c]::printk_mknumstr(char *, void *, int, int)
                        0x0000da43    0xb0  Code  Lc  printf.o [1]
[local to printf_c]::printk_pad_space(int, int, int *, PRINTK_INFO *)
                        0x0000db19    0x26  Code  Lc  printf.o [1]
[local to printf_c]::printk_pad_zero(int, int, int *, PRINTK_INFO *)
                        0x0000daf3    0x26  Code  Lc  printf.o [1]
[local to printf_c]::printk_putc(int, int *, PRINTK_INFO *)
                        0x0000da11    0x32  Code  Lc  printf.o [1]
[local to system_MK60_c]::Diagnostic_Reset_Source()
                        0x00010d21   0x156  Code  Lc  system_MK60.o [1]
[local to system_MK60_c]::cpu_identify()
                        0x00010af1   0x18a  Code  Lc  system_MK60.o [1]
[local to system_MK60_c]::flash_identify()
                        0x00010c7b    0xa6  Code  Lc  system_MK60.o [1]
_LocaleC_isalpha        0x0000e9f7     0xc  Code  Gb  xlocale_c.o [3]
_LocaleC_islower        0x0000e9f1     0x4  Code  Gb  xlocale_c.o [3]
_LocaleC_isspace        0x0000ea0d    0x14  Code  Gb  xlocale_c.o [3]
_LocaleC_isupper        0x0000e9f5     0x2  Code  Gb  xlocale_c.o [3]
_Locale_lconv           0x1fff1d30    0x38  Data  Lc  xlocale_c.o [3]
__BOOT_STACK_ADDRESS {Abs}
                        0x2000ffe8          Data  Gb  command line/config [2]
__VECTOR_RAM {Abs}      0x1fff0000          Data  Gb  command line/config [2]
__VECTOR_TABLE {Abs}    0x00000000          Data  Gb  command line/config [2]
__Vectors               0x00000000           --   Gb  startup_K60F12.o [1]
__Vectors_End           0x00000400          Data  Gb  startup_K60F12.o [1]
__Vectors_Size {Abs}    0x00000400           --   Gb  startup_K60F12.o [1]
__aeabi_cdcmple         0x0000cad9          Code  Gb  DblCmpLe.o [6]
__aeabi_d2f             0x00002a45          Code  Gb  DblToFlt.o [6]
__aeabi_d2iz            0x0000cd7d          Code  Gb  DblToS32.o [6]
__aeabi_d2uiz           0x0000cf95          Code  Gb  DblToU32.o [6]
__aeabi_dadd            0x0000355d          Code  Gb  DblAdd.o [6]
__aeabi_ddiv            0x0000c891          Code  Gb  DblDiv.o [6]
__aeabi_dmul            0x000028a1          Code  Gb  DblMul.o [6]
__aeabi_dsub            0x000039d1          Code  Gb  DblSub.o [6]
__aeabi_f2d             0x00002859          Code  Gb  FltToDbl.o [6]
__aeabi_i2d             0x0000c86d          Code  Gb  S32ToDbl.o [6]
__aeabi_memcpy4         0x00003ab5          Code  Gb  ABImemcpy.o [7]
__aeabi_memcpy8         0x00003ab5          Code  Gb  ABImemcpy.o [7]
__aeabi_memset          0x0000cbcd          Code  Gb  ABImemset.o [7]
__aeabi_ui2d            0x0000cf79          Code  Gb  U32ToDbl.o [6]
__call_ctors            0x00011a69    0x18  Code  Gb  cppinit.o [3]
__cmain                 0x00011b0d          Code  Gb  cmain.o [7]
__exit                  0x00011b39    0x14  Code  Gb  exit.o [8]
__iar_Exp32             0x0000dfbd   0x278  Code  Gb  iar_Exp32.o [6]
__iar_Memchr            0x0000ea31          Code  Gb  memchr.o [7]
__iar_Memset            0x0000cbcd          Code  Gb  ABImemset.o [7]
__iar_Memset_word       0x0000cbd5          Code  Gb  ABImemset.o [7]
__iar_Pow32             0x0000cfbd   0x398  Code  Lc  pow32.o [6]
__iar_Sto64             0x0000d7dd   0x19e  Code  Gb  strto64.o [6]
__iar_Stoflt            0x0000e501   0x1c8  Code  Gb  iar_Stoflt.o [3]
__iar_Stopfx            0x0000e3df   0x122  Code  Gb  iar_Stopfx.o [3]
__iar_Stoxflt           0x0000e6c9   0x208  Code  Gb  iar_Stoxflt.o [3]
__iar_Stoxflt::digits   0x0000e8d4    0x18  Data  Lc  iar_Stoxflt.o [3]
__iar_Stoxflt::vals     0x0000e8ec    0x18  Data  Lc  iar_Stoxflt.o [3]
__iar_asin32            0x00003ba9          Code  Gb  asinf.o [6]
__iar_atan2_32          0x00003b3d          Code  Gb  atan2f.o [6]
__iar_atan32            0x0000cb1d          Code  Gb  atanf.o [6]
__iar_cstart_call_ctors
                        0x00011a49    0x20  Code  Gb  cmain_call_ctors.o [7]
__iar_dadd              0x000039e1          Code  Gb  DblSub.o [6]
__iar_data_init3        0x000118b9    0x28  Code  Gb  data_init.o [7]
__iar_debug_exceptions  0x00002a42     0x1  Data  Gb  unwind_debug.o [8]
__iar_dsub              0x0000356d          Code  Gb  DblAdd.o [6]
__iar_dsubStart         0x0000357f          Code  Gb  DblAdd.o [6]
__iar_frexp             0x0000e241          Code  Gb  frexp.o [6]
__iar_frexp32           0x0000df75          Code  Gb  frexpf.o [6]
__iar_frexpf            0x0000df89          Code  Gb  frexpf.o [6]
__iar_frexpl            0x0000e241          Code  Gb  frexp.o [6]
__iar_globLocale        0x1fff1d68    0x48  Data  Lc  xlocale_c.o [3]
__iar_global_Locale     0x0000ea21     0x4  Code  Gb  xlocale_c.o [3]
__iar_init_vfp          0x00011971          Code  Gb  fpinit_M.o [6]
__iar_ldexp32           0x0000e905          Code  Gb  ldexpf.o [6]
__iar_ldexp64           0x0000e2a5          Code  Gb  ldexp.o [6]
__iar_pow32             0x0000d391     0x4  Code  Gb  pow32.o [6]
__iar_pow_medium32      0x0000d391     0x4  Code  Gb  pow32.o [6]
__iar_pow_mediumf       0x0000d391     0x4  Code  Gb  pow32.o [6]
__iar_program_start     0x00011ce5          Code  Gb  cstartup_M.o [7]
__iar_scalbln32         0x0000e905          Code  Gb  ldexpf.o [6]
__iar_scalbln64         0x0000e2a5          Code  Gb  ldexp.o [6]
__iar_scalbn32          0x0000e905          Code  Gb  ldexpf.o [6]
__iar_scalbn64          0x0000e2a5          Code  Gb  ldexp.o [6]
__iar_softfp___iar_frexp64
                        0x0000e235          Code  Gb  frexp.o [6]
__iar_softfp_frexp      0x0000e235          Code  Gb  frexp.o [6]
__iar_softfp_frexpl     0x0000e235          Code  Gb  frexp.o [6]
__iar_systems$$module {Abs}
                        0x00000001          Data  Gb  command line/config [2]
__iar_tls$$INIT_ARRAY$$Base
                        0x00011cd8           --   Gb  - Linker created -
__iar_tls$$INIT_ARRAY$$Limit
                        0x00011cd8           --   Gb  - Linker created -
__iar_vfp_atof          0x0000cd73     0x8  Code  Gb  math_wrappers64.o [6]
__iar_xatanf            0x00003c55          Code  Gb  xatanf.o [6]
__iar_zero_init3        0x0001178d    0x40  Code  Gb  zero_init3.o [7]
__sti__routine          0x00000425    0x34  Code  Lc  EKF_AHRS.o [1]
__sti__routine          0x000089d9    0x14  Code  Lc  MPU6000.o [1]
__sti__routine          0x000093ad     0xc  Code  Lc  MS5611 Air Pressure.o [1]
__sti__routine          0x00009c79     0xa  Code  Lc  Ultrasound.o [1]
__vector_table          0x00000000          Data  Gb  startup_K60F12.o [1]
__vector_table_0x1c     0x0000001c          Data  Gb  startup_K60F12.o [1]
_call_main              0x00011b19          Code  Gb  cmain.o [7]
_exit                   0x00011b2d          Code  Gb  cexit.o [7]
_main                   0x00011b23          Code  Gb  cmain.o [7]
accel_E_H_x             0x1fff27a4   0x7dc  Data  Gb  EKF_AHRS.o [1]
accel_E_H_y             0x1fff2f80   0x7dc  Data  Gb  EKF_AHRS.o [1]
accel_E_H_z             0x1fff375c   0x7dc  Data  Gb  EKF_AHRS.o [1]
accel_E_x               0x1fff3f38     0x4  Data  Gb  EKF_AHRS.o [1]
accel_E_y               0x1fff3f3c     0x4  Data  Gb  EKF_AHRS.o [1]
accel_E_z               0x1fff3f40     0x4  Data  Gb  EKF_AHRS.o [1]
angleX                  0x1fff0a78   0x214  Data  Gb  variables_F450.o [1]
angleY                  0x1fff0c8c   0x214  Data  Gb  variables_F450.o [1]
angleZ                  0x1fff0ea0   0x214  Data  Gb  variables_F450.o [1]
arm_cos_f32             0x0000cdb9    0x80  Code  Gb  arm_cos_f32.o [5]
arm_mat_add_f32         0x00002b9d   0x146  Code  Gb  arm_mat_add_f32.o [5]
arm_mat_inverse_f32     0x00002ed5   0x540  Code  Gb  arm_mat_inverse_f32.o [5]
arm_mat_mult_f32        0x00002ddd    0xf8  Code  Gb  arm_mat_mult_f32.o [5]
arm_mat_scale_f32       0x00002aad    0xee  Code  Gb  arm_mat_scale_f32.o [5]
arm_mat_sub_f32         0x00003415   0x146  Code  Gb  arm_mat_sub_f32.o [5]
arm_mat_trans_f32       0x00002ce5    0xf6  Code  Gb  arm_mat_trans_f32.o [5]
arm_sin_f32             0x0000ce39    0x98  Code  Gb  arm_sin_f32.o [5]
asinf                   0x00003ba9          Code  Gb  asinf.o [6]
assert_failed           0x0000cf11    0x28  Code  Gb  assert.o [1]
atan2f                  0x00003b3d          Code  Gb  atan2f.o [6]
atanf                   0x0000cb1d          Code  Gb  atanf.o [6]
atof                    0x0000d9c1     0x8  Code  Gb  strto64.o [6]
calculateD_full(PID_Controller *)
                        0x0000f855    0x80  Code  Gb  fuzzyPID.o [1]
calculateD_partial(PID_Controller *)
                        0x0000f7dd    0x76  Code  Gb  fuzzyPID.o [1]
calculateI(PID_Controller *)
                        0x0000f8d5    0x4c  Code  Gb  fuzzyPID.o [1]
ce_io_param             0x1fff5bb0    0x14  Data  Gb  moduleInit.o [1]
command                 0x1fff5d2c     0x4  Data  Gb  moduleInit.o [1]
common_relocate         0x00010ff5    0xac  Code  Gb  relocate.o [1]
compensation            0x1fff2574     0x4  Data  Gb  control.o [1]
controlOutput           0x1fff79f8   0x180  Data  Gb  variables_F450.o [1]
control_angle()         0x0000ee01   0x28a  Code  Gb  control.o [1]
control_gyro()          0x0000f091   0x140  Code  Gb  control.o [1]
control_position()      0x0000ea89   0x36e  Code  Gb  control.o [1]
dT                      0x1fff5e8c     0x4  Data  Lc  MS5611 Air Pressure.o [1]
ddiv                    0x0000d555    0xd0  Code  Lc  strto64.o [6]
dis_set_hight           0x1fff79f0     0x4  Data  Gb  variables_F450.o [1]
dmul                    0x0000d481    0xd2  Code  Lc  strto64.o [6]
errStatus               0x1fff870a     0x1  Data  Gb  EKF_AHRS.o [1]
errStatus1              0x1fff8714     0x1  Data  Gb  project.o [1]
error_evb               0x1fff5870     0x4  Data  Gb  isr.o [1]
exit                    0x00011b27     0x4  Code  Gb  exit.o [3]
fanIniSpd               0x1fff1d2c     0x4  Data  Gb  variables_F450.o [1]
fan_ini()               0x0000f53d    0x34  Code  Gb  control.o [1]
flightMode              0x1fff578c     0x4  Data  Gb  FlightMode.o [1]
flightMode_Init()       0x00006f2d    0x28  Code  Gb  FlightMode.o [1]
flightMode_Init()::flightMode_0
                        0x1fff5790    0x9c  Data  Lc  FlightMode.o [1]
flightMode_Init()::static guard for flightMode_0
                        0x1fff870b     0x1  Data  Lc  FlightMode.o [1]
frexpf                  0x0000df75          Code  Gb  frexpf.o [6]
ftm_init_struct         0x1fff58e4    0x1c  Data  Gb  moduleInit.o [1]
fuzzyPID(PID_Controller *)
                        0x0000f609   0x13c  Code  Gb  fuzzyPID.o [1]
g_bus_clock             0x1fff041c     0x4  Data  Gb  MCG.o [1]
g_core_clock            0x1fff0418     0x4  Data  Gb  MCG.o [1]
g_flash_clock           0x1fff0420     0x4  Data  Gb  MCG.o [1]
g_flexbus_clock         0x1fff0424     0x4  Data  Gb  MCG.o [1]
get_altitude()          0x00009901    0x80  Code  Gb  MS5611 Air Pressure.o [1]
gyroX                   0x1fff043c   0x214  Data  Gb  variables_F450.o [1]
gyroY                   0x1fff0650   0x214  Data  Gb  variables_F450.o [1]
gyroZ                   0x1fff0864   0x214  Data  Gb  variables_F450.o [1]
hmc5983_CS              0x1fff5864     0x4  Data  Gb  HMC5983.o [1]
hmc5983_DAQ()           0x00009357    0x46  Code  Gb  HMC5983.o [1]
hmc5983_ReadBuf(unsigned char, unsigned char *, unsigned char)
                        0x000092ed    0x6a  Code  Gb  HMC5983.o [1]
hmc5983_ReadByte(unsigned char)
                        0x000092bb    0x32  Code  Gb  HMC5983.o [1]
hmc5983_StartMea()      0x0000927f     0xc  Code  Gb  HMC5983.o [1]
hmc5983_WriteByte(unsigned char, unsigned char)
                        0x0000928b    0x30  Code  Gb  HMC5983.o [1]
hmc5983_init()          0x00009239    0x46  Code  Gb  HMC5983.o [1]
isalpha                 0x0000e9dd    0x14  Code  Gb  isalpha.o [3]
isspace                 0x0000e9c9    0x14  Code  Gb  isspace.o [3]
ldexp                   0x0000e2a5          Code  Gb  ldexp.o [6]
ldexpf                  0x0000e905          Code  Gb  ldexpf.o [6]
ldexpl                  0x0000e2a5          Code  Gb  ldexp.o [6]
localeconv              0x0000ea25     0x4  Code  Gb  xlocale_c.o [3]
main                    0x00011295   0x16c  Code  Gb  project.o [1]
memchr                  0x0000ea31          Code  Gb  memchr.o [7]
out_char                0x00011c75    0x10  Code  Gb  io.o [1]
pit_init_struct         0x1fff5900    0x14  Data  Gb  moduleInit.o [1]
pit_isr()               0x00010231   0x670  Code  Gb  isr.o [1]
pit_isr()::MPU6000_0    0x1fff5880    0x60  Data  Lc  isr.o [1]
pit_isr()::MPU6000_changeTime
                        0x1fff587c     0x4  Data  Lc  isr.o [1]
pit_isr()::static guard for MPU6000_0
                        0x1fff870d     0x1  Data  Lc  isr.o [1]
pitch1                  0x1fff7b7c     0x4  Data  Gb  variables_F450.o [1]
pitch3                  0x1fff7b8c     0x4  Data  Gb  variables_F450.o [1]
position                0x1fff26fc    0x54  Data  Gb  EKF_AHRS.o [1]
positionX               0x1fff16f0   0x214  Data  Gb  variables_F450.o [1]
positionX_vel           0x1fff10b4   0x214  Data  Gb  variables_F450.o [1]
positionY               0x1fff1904   0x214  Data  Gb  variables_F450.o [1]
positionY_vel           0x1fff12c8   0x214  Data  Gb  variables_F450.o [1]
positionZ               0x1fff1b18   0x214  Data  Gb  variables_F450.o [1]
positionZ_vel           0x1fff14dc   0x214  Data  Gb  variables_F450.o [1]
powerVoltage_12         0x1fff7b98     0x4  Data  Gb  variables_F450.o [1]
powerVoltage_3v3        0x1fff7ba0     0x4  Data  Gb  variables_F450.o [1]
powerVoltage_5          0x1fff7b9c     0x4  Data  Gb  variables_F450.o [1]
powf                    0x0000d391     0x4  Code  Gb  pow32.o [6]
pows                    0x0000d9c8    0x48  Data  Lc  strto64.o [6]
printf                  0x0000df4b    0x24  Code  Gb  printf.o [1]
printk(PRINTK_INFO *, char const *, __va_list)
                        0x0000db3f   0x40c  Code  Gb  printf.o [1]
quaternion::quaternion()
                        0x00003c21    0x1c  Code  Gb  EKF_AHRS.o [1]
roll1                   0x1fff7b78     0x4  Data  Gb  variables_F450.o [1]
roll3                   0x1fff7b88     0x4  Data  Gb  variables_F450.o [1]
roror1                  0x1fff7ba4     0x4  Data  Gb  variables_F450.o [1]
roror2                  0x1fff7ba8     0x4  Data  Gb  variables_F450.o [1]
roror3                  0x1fff7bac     0x4  Data  Gb  variables_F450.o [1]
roror4                  0x1fff7bb0     0x4  Data  Gb  variables_F450.o [1]
rotor_out()             0x0000f1e5   0x354  Code  Gb  control.o [1]
rotor_out()::motor_max  0x1fff0410     0x4  Data  Lc  control.o [1]
rotor_out()::motor_min  0x1fff0414     0x4  Data  Lc  control.o [1]
scalbln                 0x0000e2a5          Code  Gb  ldexp.o [6]
scalblnf                0x0000e905          Code  Gb  ldexpf.o [6]
scalblnl                0x0000e2a5          Code  Gb  ldexp.o [6]
scalbn                  0x0000e2a5          Code  Gb  ldexp.o [6]
scalbnf                 0x0000e905          Code  Gb  ldexpf.o [6]
scalbnl                 0x0000e2a5          Code  Gb  ldexp.o [6]
setup                   0x1fff86f6     0x2  Data  Lc  MS5611 Air Pressure.o [1]
sinTable_f32            0x0000fa08   0x804  Data  Gb  arm_common_tables.o [5]
strlen                  0x0000ccc5          Code  Gb  strlen.o [7]
strncmp                 0x0000cf39    0x28  Code  Gb  strncmp.o [3]
strncpy                 0x0000ccfd          Code  Gb  strncpy.o [7]
t                       0x1fff7998     0x4  Data  Gb  variables_F450.o [1]
tTrans                  0x1fff799c     0x4  Data  Gb  variables_F450.o [1]
ta1                     0x1fff1db0     0x2  Data  Gb  project.o [1]
ta2                     0x1fff8710     0x1  Data  Gb  project.o [1]
ta3                     0x1fff8711     0x1  Data  Gb  project.o [1]
ta4                     0x1fff8712     0x1  Data  Gb  project.o [1]
ta5                     0x1fff8713     0x1  Data  Gb  project.o [1]
timeWindowIntegral::timeWindowIntegral()
                        0x0000238b     0xe  Code  Gb  EKF_AHRS.o [1]
timeWindowIntegral::update(float)
                        0x00003949    0x80  Code  Gb  General Class.o [1]
tmp_float               0x1fff5eac     0x4  Data  Gb  MS5611 Air Pressure.o [1]
uart0_init_struct       0x1fff5914    0x1c  Data  Gb  moduleInit.o [1]
uart1_init_struct       0x1fff5930    0x1c  Data  Gb  moduleInit.o [1]
uart2_init_struct       0x1fff594c    0x1c  Data  Gb  moduleInit.o [1]
uart3_init_struct       0x1fff5968    0x1c  Data  Gb  moduleInit.o [1]
uart4_init_struct       0x1fff5984    0x1c  Data  Gb  moduleInit.o [1]
uart5_init_struct       0x1fff59a0    0x1c  Data  Gb  moduleInit.o [1]
useConstantKpKiKd(PID_Controller *)
                        0x0000f921    0x16  Code  Gb  fuzzyPID.o [1]
value_buf1              0x1fff5eb0    0x28  Data  Gb  MS5611 Air Pressure.o [1]
value_buf2              0x1fff5ed8    0x28  Data  Gb  MS5611 Air Pressure.o [1]
velocity                0x1fff2750    0x54  Data  Gb  EKF_AHRS.o [1]
videoStation            0x1fff7bb4     0x4  Data  Gb  VideoStation.o [1]
voidVar                 0x1fff5d28     0x4  Data  Gb  moduleInit.o [1]
waterGun                0x1fff86e0     0x4  Data  Gb  waterGun.o [1]
yaw1                    0x1fff7b80     0x4  Data  Gb  variables_F450.o [1]
yaw2                    0x1fff7b84     0x4  Data  Gb  variables_F450.o [1]
yaw3                    0x1fff7b90     0x4  Data  Gb  variables_F450.o [1]
yaw4                    0x1fff7b94     0x4  Data  Gb  variables_F450.o [1]
yaw_init                0x1fff5874     0x4  Data  Gb  isr.o [1]
yaw_init1               0x1fff5878     0x4  Data  Gb  isr.o [1]


[1] = C:\Users\xsk19940910\Desktop\flightController-1\flightController-1\program\iar\FLASH\Obj
[2] = command line
[3] = dl7M_tlf.a
[4] = dlpp7M_tl_fc.a
[5] = iar_cortexM4lf_math.a
[6] = m7M_tls.a
[7] = rt7M_tl.a
[8] = shb_l.a

  62 245 bytes of readonly  code memory
  10 855 bytes of readonly  data memory
  41 733 bytes of readwrite data memory

Errors: none
Warnings: none
